target datalayout = "e-m:e-p270:32:32-p271:32:32-p272:64:64-i64:64-i128:128-f80:128-n8:16:32:64-S128"
target triple = "x86_64-unknown-linux-gnu"

%struct.llama_context = type { %struct.llama_cparams, ptr, %struct.llama_kv_cache, %"class.std::mersenne_twister_engine", i8, i64, i64, i64, i64, i64, i32, i32, i32, %"class.std::vector.107", i8, %"class.std::vector.107", %"class.std::vector.112", %struct.llama_buffer, %struct.llama_buffer, ptr }
%struct.llama_cparams = type { i32, i32, i32, i32, float, float, i32, float, float, float, float, i8, i8 }
%struct.llama_kv_cache = type { i8, i32, i32, i32, i32, %"class.std::vector.97", %"class.std::vector.102", %"class.std::vector.102", ptr, %struct.llama_buffer }
%"class.std::vector.97" = type { %"struct.std::_Vector_base.98" }
%"struct.std::_Vector_base.98" = type { %"struct.std::_Vector_base<llama_kv_cell, std::allocator<llama_kv_cell>>::_Vector_impl" }
%"struct.std::_Vector_base<llama_kv_cell, std::allocator<llama_kv_cell>>::_Vector_impl" = type { %"struct.std::_Vector_base<llama_kv_cell, std::allocator<llama_kv_cell>>::_Vector_impl_data" }
%"struct.std::_Vector_base<llama_kv_cell, std::allocator<llama_kv_cell>>::_Vector_impl_data" = type { ptr, ptr, ptr }
%"class.std::vector.102" = type { %"struct.std::_Vector_base.103" }
%"struct.std::_Vector_base.103" = type { %"struct.std::_Vector_base<ggml_tensor *, std::allocator<ggml_tensor *>>::_Vector_impl" }
%"struct.std::_Vector_base<ggml_tensor *, std::allocator<ggml_tensor *>>::_Vector_impl" = type { %"struct.std::_Vector_base<ggml_tensor *, std::allocator<ggml_tensor *>>::_Vector_impl_data" }
%"struct.std::_Vector_base<ggml_tensor *, std::allocator<ggml_tensor *>>::_Vector_impl_data" = type { ptr, ptr, ptr }
%"class.std::mersenne_twister_engine" = type { [624 x i64], i64 }
%"class.std::vector.107" = type { %"struct.std::_Vector_base.108" }
%"struct.std::_Vector_base.108" = type { %"struct.std::_Vector_base<float, std::allocator<float>>::_Vector_impl" }
%"struct.std::_Vector_base<float, std::allocator<float>>::_Vector_impl" = type { %"struct.std::_Vector_base<float, std::allocator<float>>::_Vector_impl_data" }
%"struct.std::_Vector_base<float, std::allocator<float>>::_Vector_impl_data" = type { ptr, ptr, ptr }
%"class.std::vector.112" = type { %"struct.std::_Vector_base.113" }
%"struct.std::_Vector_base.113" = type { %"struct.std::_Vector_base<unsigned char, std::allocator<unsigned char>>::_Vector_impl" }
%"struct.std::_Vector_base<unsigned char, std::allocator<unsigned char>>::_Vector_impl" = type { %"struct.std::_Vector_base<unsigned char, std::allocator<unsigned char>>::_Vector_impl_data" }
%"struct.std::_Vector_base<unsigned char, std::allocator<unsigned char>>::_Vector_impl_data" = type { ptr, ptr, ptr }
%struct.llama_buffer = type <{ ptr, i64, i8, [7 x i8] }>
%struct.llama_token_data_array = type { ptr, i64, i8 }
%struct.llama_token_data = type { i32, float, float }

; Function Attrs: mustprogress uwtable
define void @llama_sample_top_p(ptr noundef %ctx, ptr noundef %candidates, float noundef %p, i64 noundef %min_keep) #2 {
entry:
  %ctx.addr = alloca ptr, align 8
  %candidates.addr = alloca ptr, align 8
  %p.addr = alloca float, align 4
  %min_keep.addr = alloca i64, align 8
  %t_start_sample_us = alloca i64, align 8
  %cum_sum = alloca float, align 4
  %last_idx = alloca i64, align 8
  %i = alloca i64, align 8
  store ptr %ctx, ptr %ctx.addr, align 8
  store ptr %candidates, ptr %candidates.addr, align 8
  store float %p, ptr %p.addr, align 4
  store i64 %min_keep, ptr %min_keep.addr, align 8
  %0 = load float, ptr %p.addr, align 4
  %cmp = fcmp oge float %0, 1.000000e+00
  br i1 %cmp, label %if.then, label %if.end

if.then:                                          ; preds = %entry
  br label %if.end14

if.end:                                           ; preds = %entry
  %1 = load ptr, ptr %ctx.addr, align 8
  %2 = load ptr, ptr %candidates.addr, align 8
  call void @llama_sample_softmax(ptr noundef %1, ptr noundef %2)
  %call = call i64 @ggml_time_us()
  store i64 %call, ptr %t_start_sample_us, align 8
  store float 0.000000e+00, ptr %cum_sum, align 4
  %3 = load ptr, ptr %candidates.addr, align 8
  %size = getelementptr inbounds %struct.llama_token_data_array, ptr %3, i32 0, i32 1
  %4 = load i64, ptr %size, align 8
  store i64 %4, ptr %last_idx, align 8
  store i64 0, ptr %i, align 8
  br label %for.cond

for.cond:                                         ; preds = %for.inc, %if.end
  %5 = load i64, ptr %i, align 8
  %6 = load ptr, ptr %candidates.addr, align 8
  %size1 = getelementptr inbounds %struct.llama_token_data_array, ptr %6, i32 0, i32 1
  %7 = load i64, ptr %size1, align 8
  %cmp2 = icmp ult i64 %5, %7
  br i1 %cmp2, label %for.body, label %for.end

for.body:                                         ; preds = %for.cond
  %8 = load ptr, ptr %candidates.addr, align 8
  %data = getelementptr inbounds %struct.llama_token_data_array, ptr %8, i32 0, i32 0
  %9 = load ptr, ptr %data, align 8
  %10 = load i64, ptr %i, align 8
  %arrayidx = getelementptr inbounds %struct.llama_token_data, ptr %9, i64 %10
  %p3 = getelementptr inbounds %struct.llama_token_data, ptr %arrayidx, i32 0, i32 2
  %11 = load float, ptr %p3, align 4
  %12 = load float, ptr %cum_sum, align 4
  %add = fadd float %12, %11
  store float %add, ptr %cum_sum, align 4
  %13 = load float, ptr %cum_sum, align 4
  %14 = load float, ptr %p.addr, align 4
  %cmp4 = fcmp oge float %13, %14
  br i1 %cmp4, label %land.lhs.true, label %if.end9

land.lhs.true:                                    ; preds = %for.body
  %15 = load i64, ptr %i, align 8
  %add5 = add i64 %15, 1
  %16 = load i64, ptr %min_keep.addr, align 8
  %cmp6 = icmp uge i64 %add5, %16
  br i1 %cmp6, label %if.then7, label %if.end9

if.then7:                                         ; preds = %land.lhs.true
  %17 = load i64, ptr %i, align 8
  %add8 = add i64 %17, 1
  store i64 %add8, ptr %last_idx, align 8
  br label %for.end

if.end9:                                          ; preds = %land.lhs.true, %for.body
  br label %for.inc

for.inc:                                          ; preds = %if.end9
  %18 = load i64, ptr %i, align 8
  %inc = add i64 %18, 1
  store i64 %inc, ptr %i, align 8
  br label %for.cond, !llvm.loop !18

for.end:                                          ; preds = %if.then7, %for.cond
  %19 = load i64, ptr %last_idx, align 8
  %20 = load ptr, ptr %candidates.addr, align 8
  %size10 = getelementptr inbounds %struct.llama_token_data_array, ptr %20, i32 0, i32 1
  store i64 %19, ptr %size10, align 8
  %21 = load ptr, ptr %ctx.addr, align 8
  %tobool = icmp ne ptr %21, null
  br i1 %tobool, label %if.then11, label %if.end14

if.then11:                                        ; preds = %for.end
  %call12 = call i64 @ggml_time_us()
  %22 = load i64, ptr %t_start_sample_us, align 8
  %sub = sub nsw i64 %call12, %22
  %23 = load ptr, ptr %ctx.addr, align 8
  %t_sample_us = getelementptr inbounds %struct.llama_context, ptr %23, i32 0, i32 7
  %24 = load i64, ptr %t_sample_us, align 8
  %add13 = add nsw i64 %24, %sub
  store i64 %add13, ptr %t_sample_us, align 8
  br label %if.end14

if.end14:                                         ; preds = %if.then11, %for.end, %if.then
  ret void
}