; Function Attrs: mustprogress uwtable
define void @llama_sample_top_p(ptr noundef %ctx, ptr nocapture noundef %candidates, float noundef %p, i64 noundef %min_keep) local_unnamed_addr #2 {
entry:
  %cmp = fcmp ult float %p, 1.000000e+00
  br i1 %cmp, label %if.end, label %if.end14

if.end:                                           ; preds = %entry
  tail call void @llama_sample_softmax(ptr noundef %ctx, ptr noundef %candidates)
  %call = tail call i64 @ggml_time_us()
  %size = getelementptr inbounds i8, ptr %candidates, i64 8
  %0 = load i64, ptr %size, align 8
  br label %for.cond

for.cond:                                         ; preds = %for.body, %if.end
  %cum_sum.0 = phi float [ 0.000000e+00, %if.end ], [ %add, %for.body ]
  %i.0 = phi i64 [ 0, %if.end ], [ %add5, %for.body ]
  %exitcond.not = icmp eq i64 %i.0, %0
  br i1 %exitcond.not, label %for.end, label %for.body

for.body:                                         ; preds = %for.cond
  %1 = load ptr, ptr %candidates, align 8
  %p3 = getelementptr inbounds %struct.llama_token_data, ptr %1, i64 %i.0, i32 2
  %2 = load float, ptr %p3, align 4
  %add = fadd float %cum_sum.0, %2
  %cmp4 = fcmp ult float %add, %p
  %add5 = add i64 %i.0, 1
  %cmp6.not = icmp ult i64 %add5, %min_keep
  %or.cond = or i1 %cmp6.not, %cmp4
  br i1 %or.cond, label %for.cond, label %for.end, !llvm.loop !38

for.end:                                          ; preds = %for.body, %for.cond
  %last_idx.0 = phi i64 [ %0, %for.cond ], [ %add5, %for.body ]
  store i64 %last_idx.0, ptr %size, align 8
  %tobool.not = icmp eq ptr %ctx, null
  br i1 %tobool.not, label %if.end14, label %if.then11

if.then11:                                        ; preds = %for.end
  %call12 = tail call i64 @ggml_time_us()
  %sub = sub i64 %call12, %call
  %t_sample_us = getelementptr inbounds i8, ptr %ctx, i64 5208
  %3 = load i64, ptr %t_sample_us, align 8
  %add13 = add nsw i64 %sub, %3
  store i64 %add13, ptr %t_sample_us, align 8
  br label %if.end14

if.end14:                                         ; preds = %entry, %if.then11, %for.end
  ret void
}